; Function Attrs: mustprogress uwtable
define noundef zeroext i1 @_ZN32pxrInternal_v0_24__pxrReserved__11UsdPayloads10AddPayloadERKNSt7__cxx1112basic_stringIcSt11char_traitsIcESaIcEEERKNS_7SdfPathERKNS_14SdfLayerOffsetENS_15UsdListPositionE(ptr noundef nonnull align 8 dereferenceable(32) %0, ptr noundef nonnull align 8 dereferenceable(32) %1, ptr noundef nonnull align 4 dereferenceable(8) %2, ptr noundef nonnull align 8 dereferenceable(16) %3, i32 noundef %4) local_unnamed_addr #0 align 2 personality ptr @__gxx_personality_v0 {
  %6 = alloca %"class.pxrInternal_v0_24__pxrReserved__::SdfPayload", align 8
  call void @_ZN32pxrInternal_v0_24__pxrReserved__10SdfPayloadC1ERKNSt7__cxx1112basic_stringIcSt11char_traitsIcESaIcEEERKNS_7SdfPathERKNS_14SdfLayerOffsetE(ptr noundef nonnull align 8 dereferenceable(56) %6, ptr noundef nonnull align 8 dereferenceable(32) %1, ptr noundef nonnull align 4 dereferenceable(8) %2, ptr noundef nonnull align 8 dereferenceable(16) %3)
  %7 = invoke noundef zeroext i1 @_ZN32pxrInternal_v0_24__pxrReserved__16Usd_ListEditImplINS_11UsdPayloadsENS_18SdfListEditorProxyINS_20SdfPayloadTypePolicyEEEE3AddERKS1_RKNS_10SdfPayloadENS_15UsdListPositionE(ptr noundef nonnull align 8 dereferenceable(32) %0, ptr noundef nonnull align 8 dereferenceable(56) %6, i32 noundef %4)
          to label %_ZN32pxrInternal_v0_24__pxrReserved__11UsdPayloads10AddPayloadERKNS_10SdfPayloadENS_15UsdListPositionE.exit unwind label %27

_ZN32pxrInternal_v0_24__pxrReserved__11UsdPayloads10AddPayloadERKNS_10SdfPayloadENS_15UsdListPositionE.exit: ; preds = %5
  %8 = getelementptr inbounds nuw i8, ptr %6, i64 32
  %9 = load i32, ptr %8, align 8
  %.not.i.i.i = icmp eq i32 %9, 0
  br i1 %.not.i.i.i, label %_ZN32pxrInternal_v0_24__pxrReserved__10SdfPayloadD2Ev.exit, label %10

10:                                               ; preds = %_ZN32pxrInternal_v0_24__pxrReserved__11UsdPayloads10AddPayloadERKNS_10SdfPayloadENS_15UsdListPositionE.exit
  %11 = and i32 %9, 255
  %12 = lshr i32 %9, 8
  %13 = zext nneg i32 %11 to i64
  %14 = getelementptr inbounds nuw [257 x ptr], ptr @_ZN32pxrInternal_v0_24__pxrReserved__8Sdf_PoolINS_15Sdf_PathPrimTagELj24ELj8ELj16384EE13_regionStartsE, i64 0, i64 %13
  %15 = load ptr, ptr %14, align 8
  %16 = mul nuw nsw i32 %12, 24
  %17 = zext nneg i32 %16 to i64
  %18 = getelementptr inbounds nuw i8, ptr %15, i64 %17
  %19 = getelementptr inbounds nuw i8, ptr %18, i64 8
  %20 = atomicrmw sub ptr %19, i32 1 seq_cst, align 4
  %21 = and i32 %20, 2147483647
  %22 = icmp eq i32 %21, 1
  br i1 %22, label %23, label %_ZN32pxrInternal_v0_24__pxrReserved__10SdfPayloadD2Ev.exit

23:                                               ; preds = %10
  invoke void @_ZNK32pxrInternal_v0_24__pxrReserved__12Sdf_PathNode8_DestroyEv(ptr noundef nonnull align 8 dereferenceable(16) %18)
          to label %_ZN32pxrInternal_v0_24__pxrReserved__10SdfPayloadD2Ev.exit unwind label %24

24:                                               ; preds = %23
  %25 = landingpad { ptr, i32 }
          catch ptr null
  %26 = extractvalue { ptr, i32 } %25, 0
  call void @__clang_call_terminate(ptr %26) #17
  unreachable

_ZN32pxrInternal_v0_24__pxrReserved__10SdfPayloadD2Ev.exit: ; preds = %_ZN32pxrInternal_v0_24__pxrReserved__11UsdPayloads10AddPayloadERKNS_10SdfPayloadENS_15UsdListPositionE.exit, %10, %23
  call void @_ZNSt7__cxx1112basic_stringIcSt11char_traitsIcESaIcEED1Ev(ptr noundef nonnull align 8 dereferenceable(56) %6) #15
  ret i1 %7

27:                                               ; preds = %5
  %28 = landingpad { ptr, i32 }
          cleanup
  call void @_ZN32pxrInternal_v0_24__pxrReserved__10SdfPayloadD2Ev(ptr noundef nonnull align 8 dereferenceable(56) %6) #15
  resume { ptr, i32 } %28
}